target datalayout = "e-m:e-p270:32:32-p271:32:32-p272:64:64-i64:64-i128:128-f80:128-n8:16:32:64-S128"
target triple = "x86_64-pc-linux-gnu"

%struct._ir_insn = type { %struct.anon, %union.anon.6 }
%struct.anon = type { %union.anon.0, %union.anon.5 }
%union.anon.0 = type { i32 }
%union.anon.5 = type { i32 }
%union.anon.6 = type { %union._ir_val }
%union._ir_val = type { double }
%struct._ir_ctx = type { ptr, i32, i32, i32, i32, i32, i32, i32, i32, i32, i32, %struct._ir_insn, ptr, ptr, ptr, i32, i32, i32, ptr, ptr, ptr, ptr, ptr, i32, i32, i64, i32, i32, i32, i64, i32, i32, i32, i32, ptr, ptr, ptr, ptr, ptr, ptr, %union.anon.14, ptr, i32, i32, i32, i64, i32, i32, i32, ptr, ptr, ptr, ptr, %struct._ir_strtab, [61 x i32], [14 x i32] }
%union.anon.14 = type { ptr }
%struct._ir_strtab = type { ptr, i32, i32, i32, i32, ptr, i32, i32 }
%struct.anon.8 = type { %union.anon.9, i32 }
%union.anon.9 = type { i32 }

; Function Attrs: nounwind uwtable
define internal void @ir_emit_store_mem_fp_const(ptr noundef %0, i32 noundef %1, i64 noundef %2, i32 noundef %3, i8 noundef signext %4, i8 noundef signext %5) #0 {
  %7 = alloca ptr, align 8
  %8 = alloca i32, align 4
  %9 = alloca i64, align 8
  %10 = alloca i32, align 4
  %11 = alloca i8, align 1
  %12 = alloca i8, align 1
  %13 = alloca ptr, align 8
  store ptr %0, ptr %7, align 8
  store i32 %1, ptr %8, align 4
  store i64 %2, ptr %9, align 8
  store i32 %3, ptr %10, align 4
  store i8 %4, ptr %11, align 1
  store i8 %5, ptr %12, align 1
  %14 = load ptr, ptr %7, align 8
  %15 = getelementptr inbounds %struct._ir_ctx, ptr %14, i32 0, i32 0
  %16 = load ptr, ptr %15, align 8
  %17 = load i32, ptr %10, align 4
  %18 = sext i32 %17 to i64
  %19 = getelementptr inbounds %struct._ir_insn, ptr %16, i64 %18
  %20 = getelementptr inbounds %struct._ir_insn, ptr %19, i32 0, i32 1
  store ptr %20, ptr %13, align 8
  %21 = load i32, ptr %8, align 4
  %22 = icmp eq i32 %21, 13
  br i1 %22, label %23, label %29

23:                                               ; preds = %6
  %24 = load ptr, ptr %7, align 8
  %25 = load i64, ptr %9, align 8
  %26 = load ptr, ptr %13, align 8
  %27 = getelementptr inbounds %struct.anon.8, ptr %26, i32 0, i32 0
  %28 = load i32, ptr %27, align 8
  call void @ir_emit_store_mem_imm(ptr noundef %24, i32 noundef 4, i64 noundef %25, i32 noundef %28)
  br label %58

29:                                               ; preds = %6
  %30 = load ptr, ptr %13, align 8
  %31 = load i64, ptr %30, align 8
  %32 = icmp eq i64 %31, 0
  br i1 %32, label %33, label %36

33:                                               ; preds = %29
  %34 = load ptr, ptr %7, align 8
  %35 = load i64, ptr %9, align 8
  call void @ir_emit_store_mem_imm(ptr noundef %34, i32 noundef 5, i64 noundef %35, i32 noundef 0)
  br label %57

36:                                               ; preds = %29
  %37 = load i8, ptr %11, align 1
  %38 = sext i8 %37 to i32
  %39 = icmp ne i32 %38, -1
  br i1 %39, label %40, label %48

40:                                               ; preds = %36
  %41 = load ptr, ptr %7, align 8
  %42 = load i8, ptr %11, align 1
  %43 = load ptr, ptr %13, align 8
  %44 = load i64, ptr %43, align 8
  call void @ir_emit_load_imm_int(ptr noundef %41, i32 noundef 5, i8 noundef signext %42, i64 noundef %44)
  %45 = load ptr, ptr %7, align 8
  %46 = load i64, ptr %9, align 8
  %47 = load i8, ptr %11, align 1
  call void @ir_emit_store_mem_int(ptr noundef %45, i32 noundef 5, i64 noundef %46, i8 noundef signext %47)
  br label %56

48:                                               ; preds = %36
  %49 = load ptr, ptr %7, align 8
  %50 = load i32, ptr %8, align 4
  %51 = load i8, ptr %12, align 1
  %52 = load i32, ptr %10, align 4
  call void @ir_emit_load(ptr noundef %49, i32 noundef %50, i8 noundef signext %51, i32 noundef %52)
  %53 = load ptr, ptr %7, align 8
  %54 = load i64, ptr %9, align 8
  %55 = load i8, ptr %12, align 1
  call void @ir_emit_store_mem_fp(ptr noundef %53, i32 noundef 12, i64 noundef %54, i8 noundef signext %55)
  br label %56

56:                                               ; preds = %48, %40
  br label %57

57:                                               ; preds = %56, %33
  br label %58

58:                                               ; preds = %57, %23
  ret void
}