; Function Attrs: nounwind uwtable
define internal fastcc void @ir_emit_store_mem_fp_const(ptr noundef %0, i32 noundef %1, i64 noundef %2, i32 noundef %3, i8 noundef signext %4, i8 noundef signext %5) unnamed_addr #1 {
  %7 = load ptr, ptr %0, align 8
  %8 = sext i32 %3 to i64
  %9 = getelementptr inbounds %struct._ir_insn, ptr %7, i64 %8, i32 1
  %10 = icmp eq i32 %1, 13
  br i1 %10, label %11, label %14

11:                                               ; preds = %6
  %12 = load i32, ptr %9, align 8
  %13 = getelementptr i8, ptr %0, i64 248
  %.val24 = load ptr, ptr %13, align 8
  tail call fastcc void @ir_emit_store_mem_imm(ptr %.val24, i32 noundef 4, i64 noundef %2, i32 noundef %12)
  br label %23

14:                                               ; preds = %6
  %15 = load i64, ptr %9, align 8
  %16 = icmp eq i64 %15, 0
  br i1 %16, label %17, label %19

17:                                               ; preds = %14
  %18 = getelementptr i8, ptr %0, i64 248
  %.val25 = load ptr, ptr %18, align 8
  tail call fastcc void @ir_emit_store_mem_imm(ptr %.val25, i32 noundef 5, i64 noundef %2, i32 noundef 0)
  br label %23

19:                                               ; preds = %14
  %.not = icmp eq i8 %4, -1
  br i1 %.not, label %22, label %20

20:                                               ; preds = %19
  %21 = getelementptr i8, ptr %0, i64 248
  %.val23 = load ptr, ptr %21, align 8
  tail call fastcc void @ir_emit_load_imm_int(ptr %.val23, i32 noundef 5, i8 noundef signext %4, i64 noundef %15)
  %.val = load ptr, ptr %21, align 8
  tail call fastcc void @ir_emit_store_mem_int(ptr %.val, i32 noundef 5, i64 noundef %2, i8 noundef signext %4)
  br label %23

22:                                               ; preds = %19
  tail call fastcc void @ir_emit_load(ptr noundef nonnull %0, i32 noundef %1, i8 noundef signext %5, i32 noundef %3)
  tail call fastcc void @ir_emit_store_mem_fp(ptr noundef nonnull %0, i32 noundef 12, i64 noundef %2, i8 noundef signext %5)
  br label %23

23:                                               ; preds = %17, %22, %20, %11
  ret void
}